#include <math.h>
#include <stdio.h>
#include <stdlib.h>
#include <string.h>

int sushu(int a)
{ 
 int i;
 for(i = 2;i <= sqrt(a)+1;i ++)
 {if(a%i == 0) {a = 1; break;}}
 return a;
}
int main()
{  
  int n,s1,s2,j,k;
  scanf("%d",&n);
  for(j = 2;j <= n/2; j++){
  s1=sushu(j);
  if(s1 != 1){
    k=n-s1;
    s2=sushu(k);
	if(s2 != 1)
	printf("%d %d\n",s1,s2);
  }
 }
 return 0;
}